target datalayout = "e-m:e-p270:32:32-p271:32:32-p272:64:64-i64:64-i128:128-f80:128-n8:16:32:64-S128"
target triple = "x86_64-pc-linux-gnu"

%struct.frame_contexts = type { [5 x [13 x [3 x i16]]], [5 x [2 x [9 x [3 x i16]]]], [2 x [3 x [3 x i16]]], [2 x [2 x [6 x i16]]], [2 x [2 x [7 x i16]]], [2 x [2 x [8 x i16]]], [2 x [2 x [9 x i16]]], [2 x [2 x [10 x i16]]], [2 x [2 x [11 x i16]]], [2 x [2 x [12 x i16]]], [5 x [2 x [4 x [4 x i16]]]], [5 x [2 x [42 x [5 x i16]]]], [5 x [2 x [21 x [5 x i16]]]], [6 x [3 x i16]], [2 x [3 x i16]], [6 x [3 x i16]], [3 x [3 x i16]], [8 x [9 x i16]], [22 x [3 x i16]], [22 x [17 x i16]], [4 x [3 x i16]], [22 x [3 x i16]], [4 x [5 x i16]], [22 x [4 x i16]], [22 x [3 x i16]], [7 x [8 x i16]], [7 x [8 x i16]], [7 x [5 x [9 x i16]]], [7 x [5 x [9 x i16]]], [7 x [3 x [3 x i16]]], [2 x [3 x i16]], [5 x [3 x i16]], [3 x [6 x [3 x i16]]], [5 x [3 x i16]], [3 x [3 x [3 x i16]]], [3 x [3 x [3 x i16]]], [3 x [2 x [3 x i16]]], [21 x [3 x i16]], [6 x [3 x i16]], [6 x [3 x i16]], [3 x [3 x i16]], [3 x [3 x i16]], [4 x [3 x i16]], %struct.nmv_context, %struct.nmv_context, [3 x i16], %struct.segmentation_probs, [22 x [3 x i16]], [6 x i16], [4 x i16], [3 x i16], [3 x i16], [4 x [14 x i16]], [2 x [13 x [15 x i16]]], [20 x [11 x i16]], [16 x [4 x i16]], [5 x [5 x [14 x i16]]], [8 x [8 x i16]], [4 x [3 x [4 x i16]]], [5 x i16], [4 x [5 x i16]], [5 x i16], [3 x [4 x [13 x [17 x i16]]]], [4 x [4 x [17 x i16]]], [9 x i16], [6 x [17 x i16]], i32 }
%struct.nmv_context = type { [5 x i16], [2 x %struct.nmv_component] }
%struct.nmv_component = type { [12 x i16], [2 x [5 x i16]], [5 x i16], [3 x i16], [3 x i16], [3 x i16], [3 x i16], [10 x [3 x i16]] }
%struct.segmentation_probs = type { [9 x i16], [3 x [3 x i16]], [3 x [9 x i16]] }
%struct.AV1Common = type { %struct.CurrentFrame, %struct.aom_internal_error_info, i32, i32, i32, i32, i32, i32, i8, i8, [33 x i32], i32, ptr, ptr, [8 x i32], %struct.scale_factors, [8 x %struct.scale_factors], [8 x ptr], i32, i32, i32, %struct.FeatureFlags, %struct.CommonModeInfoParams, %struct.CommonQuantParams, %struct.segmentation, ptr, [8 x i8], %struct.loop_filter_info_n, %struct.loopfilter, [3 x %struct.RestorationInfo], ptr, ptr, %struct.yv12_buffer_config, %struct.CdefInfo, %struct.aom_film_grain_t, %struct.DeltaQInfo, [8 x %struct.WarpedMotionParams], %struct.SequenceHeader, ptr, ptr, %struct.CommonTileParams, ptr, %struct.CommonContexts, i32, [8 x i32], ptr, i32, [8 x i32], [8 x i8], i32, i32, i32, i32 }
%struct.CurrentFrame = type { i8, i8, i32, i32, i32, %struct.SkipModeInfo, i32, i32 }
%struct.SkipModeInfo = type { i32, i32, i32, i32 }
%struct.aom_internal_error_info = type { i32, i32, [200 x i8], i32, [1 x %struct.__jmp_buf_tag] }
%struct.__jmp_buf_tag = type { [8 x i64], i32, %struct.__sigset_t }
%struct.__sigset_t = type { [16 x i64] }
%struct.scale_factors = type { i32, i32, i32, i32, ptr, ptr }
%struct.FeatureFlags = type { i8, i8, i8, i8, i8, i8, i8, i8, i8, i8, i8, i8, i8, i8, i32, i32, i8 }
%struct.CommonModeInfoParams = type { i32, i32, i32, i32, i32, ptr, i32, i32, i8, ptr, i32, i32, ptr, ptr, ptr, ptr }
%struct.CommonQuantParams = type { i32, i32, i32, i32, i32, i32, [8 x [2 x i16]], [8 x [2 x i16]], [8 x [2 x i16]], [16 x [3 x [19 x ptr]]], [16 x [3 x [19 x ptr]]], [8 x [19 x ptr]], [8 x [19 x ptr]], [8 x [19 x ptr]], i8, i32, i32, i32 }
%struct.segmentation = type { i8, i8, i8, i8, [8 x [8 x i16]], [8 x i32], i32, i8 }
%struct.loop_filter_info_n = type { [64 x %struct.loop_filter_thresh], [3 x [8 x [2 x [8 x [2 x i8]]]]] }
%struct.loop_filter_thresh = type { [16 x i8], [16 x i8], [16 x i8] }
%struct.loopfilter = type { [2 x i32], i32, i32, i32, i8, i8, [8 x i8], [2 x i8], i32 }
%struct.RestorationInfo = type { i32, i32, i32, i32, i32, ptr, %struct.RestorationStripeBoundaries, i32 }
%struct.RestorationStripeBoundaries = type { ptr, ptr, i32, i32 }
%struct.yv12_buffer_config = type { %union.anon, %union.anon.0, %union.anon.2, %union.anon.4, %union.anon.6, %union.anon.8, i32, [3 x ptr], ptr, i32, ptr, i64, i32, i64, i32, i32, i32, i32, i32, i32, i8, i32, i32, i32, i32, i32, i32, ptr }
%union.anon = type { %struct.anon }
%struct.anon = type { i32, i32 }
%union.anon.0 = type { %struct.anon.1 }
%struct.anon.1 = type { i32, i32 }
%union.anon.2 = type { %struct.anon.3 }
%struct.anon.3 = type { i32, i32 }
%union.anon.4 = type { %struct.anon.5 }
%struct.anon.5 = type { i32, i32 }
%union.anon.6 = type { %struct.anon.7 }
%struct.anon.7 = type { i32, i32 }
%union.anon.8 = type { %struct.anon.9 }
%struct.anon.9 = type { ptr, ptr, ptr }
%struct.CdefInfo = type { i32, i32, [16 x i32], [16 x i32], i32 }
%struct.aom_film_grain_t = type { i32, i32, [14 x [2 x i32]], i32, [10 x [2 x i32]], i32, [10 x [2 x i32]], i32, i32, i32, [24 x i32], [25 x i32], [25 x i32], i32, i32, i32, i32, i32, i32, i32, i32, i32, i32, i32, i32, i16 }
%struct.DeltaQInfo = type { i32, i32, i32, i32, i32 }
%struct.WarpedMotionParams = type { [8 x i32], i16, i16, i16, i16, i8, i8 }
%struct.SequenceHeader = type { i32, i32, i32, i32, i8, i32, i32, i8, i32, i32, %struct.OrderHintInfo, i8, i8, i8, i8, i8, i8, i8, i8, i8, i8, i8, i8, i8, i8, i32, i8, i8, i32, i32, i32, i32, i32, i32, i32, i8, i8, i32, [32 x i32], i32, %struct.aom_timing, i8, %struct.aom_dec_model_info, i8, [32 x i8], [32 x i8], [33 x %struct.aom_dec_model_op_parameters] }
%struct.OrderHintInfo = type { i32, i32, i32, i32 }
%struct.aom_timing = type { i32, i32, i32, i32 }
%struct.aom_dec_model_info = type { i32, i32, i32, i32 }
%struct.aom_dec_model_op_parameters = type { i32, i64, i64, i32, i32, i32, i32, i32 }
%struct.CommonTileParams = type { i32, i32, i32, i32, i32, i32, i32, i32, i32, i32, i32, i32, i32, i32, i32, [65 x i32], [65 x i32], i32, i32 }
%struct.CommonContexts = type { ptr, [3 x ptr], ptr, i32, i32, i32 }
%struct.RefCntBuffer = type { i32, i32, [7 x i32], i32, [7 x i32], ptr, ptr, %struct.segmentation, i32, i32, i32, i32, [8 x %struct.WarpedMotionParams], i32, i8, %struct.aom_film_grain_t, %struct.aom_codec_frame_buffer, %struct.yv12_buffer_config, i8, [4 x i32], [8 x i8], [2 x i8], %struct.frame_contexts }
%struct.aom_codec_frame_buffer = type { ptr, i64, ptr }
%struct.BufferPool = type { %union.pthread_mutex_t, ptr, ptr, ptr, [16 x %struct.RefCntBuffer], %struct.InternalFrameBufferList }
%union.pthread_mutex_t = type { %struct.__pthread_mutex_s }
%struct.__pthread_mutex_s = type { i32, i32, i32, i32, i32, i16, i16, %struct.__pthread_internal_list }
%struct.__pthread_internal_list = type { ptr, ptr }
%struct.InternalFrameBufferList = type { i32, ptr }

; Function Attrs: nounwind uwtable
define internal i32 @get_ref_frame_map_idx(ptr noundef %0, i8 noundef signext %1) #0 {
  %3 = alloca ptr, align 8
  %4 = alloca i8, align 1
  store ptr %0, ptr %3, align 8
  store i8 %1, ptr %4, align 1
  %5 = load i8, ptr %4, align 1
  %6 = sext i8 %5 to i32
  %7 = icmp sge i32 %6, 1
  br i1 %7, label %8, label %21

8:                                                ; preds = %2
  %9 = load i8, ptr %4, align 1
  %10 = sext i8 %9 to i32
  %11 = icmp sle i32 %10, 8
  br i1 %11, label %12, label %21

12:                                               ; preds = %8
  %13 = load ptr, ptr %3, align 8
  %14 = getelementptr inbounds nuw %struct.AV1Common, ptr %13, i32 0, i32 14
  %15 = load i8, ptr %4, align 1
  %16 = sext i8 %15 to i32
  %17 = sub nsw i32 %16, 1
  %18 = sext i32 %17 to i64
  %19 = getelementptr inbounds [8 x i32], ptr %14, i64 0, i64 %18
  %20 = load i32, ptr %19, align 4
  br label %22

21:                                               ; preds = %8, %2
  br label %22

22:                                               ; preds = %21, %12
  %23 = phi i32 [ %20, %12 ], [ -1, %21 ]
  ret i32 %23
}

; Function Attrs: nounwind uwtable
define internal ptr @get_ref_frame_buf(ptr noundef %0, i8 noundef signext %1) #0 {
  %3 = alloca ptr, align 8
  %4 = alloca i8, align 1
  %5 = alloca i32, align 4
  store ptr %0, ptr %3, align 8
  store i8 %1, ptr %4, align 1
  %6 = load ptr, ptr %3, align 8
  %7 = load i8, ptr %4, align 1
  %8 = call i32 @get_ref_frame_map_idx(ptr noundef %6, i8 noundef signext %7)
  store i32 %8, ptr %5, align 4
  %9 = load i32, ptr %5, align 4
  %10 = icmp ne i32 %9, -1
  br i1 %10, label %11, label %18

11:                                               ; preds = %2
  %12 = load ptr, ptr %3, align 8
  %13 = getelementptr inbounds nuw %struct.AV1Common, ptr %12, i32 0, i32 17
  %14 = load i32, ptr %5, align 4
  %15 = sext i32 %14 to i64
  %16 = getelementptr inbounds [8 x ptr], ptr %13, i64 0, i64 %15
  %17 = load ptr, ptr %16, align 8
  br label %19

18:                                               ; preds = %2
  br label %19

19:                                               ; preds = %18, %11
  %20 = phi ptr [ %17, %11 ], [ null, %18 ]
  ret ptr %20
}

; Function Attrs: nounwind uwtable
define hidden void @av1_setup_frame_contexts(ptr noundef %0) #0 {
  %2 = alloca ptr, align 8
  %3 = alloca i32, align 4
  %4 = alloca ptr, align 8
  %5 = alloca i32, align 4
  store ptr %0, ptr %2, align 8
  %6 = load ptr, ptr %2, align 8
  %7 = getelementptr inbounds nuw %struct.AV1Common, ptr %6, i32 0, i32 39
  %8 = load ptr, ptr %7, align 8
  %9 = load ptr, ptr %2, align 8
  %10 = getelementptr inbounds nuw %struct.AV1Common, ptr %9, i32 0, i32 38
  %11 = load ptr, ptr %10, align 16
  call void @llvm.memcpy.p0.p0.i64(ptr align 4 %8, ptr align 4 %11, i64 21264, i1 false)
  %12 = load ptr, ptr %2, align 8
  %13 = getelementptr inbounds nuw %struct.AV1Common, ptr %12, i32 0, i32 40
  %14 = getelementptr inbounds nuw %struct.CommonTileParams, ptr %13, i32 0, i32 17
  %15 = load i32, ptr %14, align 4
  %16 = icmp ne i32 %15, 0
  br i1 %16, label %17, label %58

17:                                               ; preds = %1
  store i32 1, ptr %3, align 4
  br label %18

18:                                               ; preds = %35, %17
  %19 = load i32, ptr %3, align 4
  %20 = icmp sle i32 %19, 7
  br i1 %20, label %21, label %38

21:                                               ; preds = %18
  %22 = load ptr, ptr %2, align 8
  %23 = load i32, ptr %3, align 4
  %24 = trunc i32 %23 to i8
  %25 = call ptr @get_ref_frame_buf(ptr noundef %22, i8 noundef signext %24)
  store ptr %25, ptr %4, align 8
  %26 = load ptr, ptr %4, align 8
  %27 = icmp ne ptr %26, null
  br i1 %27, label %28, label %34

28:                                               ; preds = %21
  %29 = load ptr, ptr %4, align 8
  %30 = getelementptr inbounds nuw %struct.RefCntBuffer, ptr %29, i32 0, i32 22
  %31 = load ptr, ptr %2, align 8
  %32 = getelementptr inbounds nuw %struct.AV1Common, ptr %31, i32 0, i32 38
  %33 = load ptr, ptr %32, align 16
  call void @llvm.memcpy.p0.p0.i64(ptr align 8 %30, ptr align 4 %33, i64 21264, i1 false)
  br label %34

34:                                               ; preds = %28, %21
  br label %35

35:                                               ; preds = %34
  %36 = load i32, ptr %3, align 4
  %37 = add nsw i32 %36, 1
  store i32 %37, ptr %3, align 4
  br label %18, !llvm.loop !15

38:                                               ; preds = %18
  store i32 0, ptr %5, align 4
  br label %39

39:                                               ; preds = %54, %38
  %40 = load i32, ptr %5, align 4
  %41 = icmp slt i32 %40, 16
  br i1 %41, label %42, label %57

42:                                               ; preds = %39
  %43 = load ptr, ptr %2, align 8
  %44 = getelementptr inbounds nuw %struct.AV1Common, ptr %43, i32 0, i32 41
  %45 = load ptr, ptr %44, align 16
  %46 = getelementptr inbounds nuw %struct.BufferPool, ptr %45, i32 0, i32 4
  %47 = load i32, ptr %5, align 4
  %48 = sext i32 %47 to i64
  %49 = getelementptr inbounds [16 x %struct.RefCntBuffer], ptr %46, i64 0, i64 %48
  %50 = getelementptr inbounds nuw %struct.RefCntBuffer, ptr %49, i32 0, i32 22
  %51 = load ptr, ptr %2, align 8
  %52 = getelementptr inbounds nuw %struct.AV1Common, ptr %51, i32 0, i32 38
  %53 = load ptr, ptr %52, align 16
  call void @llvm.memcpy.p0.p0.i64(ptr align 8 %50, ptr align 4 %53, i64 21264, i1 false)
  br label %54

54:                                               ; preds = %42
  %55 = load i32, ptr %5, align 4
  %56 = add nsw i32 %55, 1
  store i32 %56, ptr %5, align 4
  br label %39, !llvm.loop !16

57:                                               ; preds = %39
  br label %58

58:                                               ; preds = %57, %1
  ret void
}