; Function Attrs: nofree norecurse nosync nounwind memory(readwrite, inaccessiblemem: none) uwtable
define hidden void @av1_setup_frame_contexts(ptr nocapture noundef readonly %0) local_unnamed_addr #5 {
  %2 = getelementptr inbounds nuw i8, ptr %0, i64 27128
  %3 = load ptr, ptr %2, align 8
  %4 = getelementptr inbounds nuw i8, ptr %0, i64 27120
  %5 = load ptr, ptr %4, align 16
  tail call void @llvm.memcpy.p0.p0.i64(ptr noundef nonnull align 4 dereferenceable(21264) %3, ptr noundef nonnull align 4 dereferenceable(21264) %5, i64 21264, i1 false)
  %6 = getelementptr inbounds i8, ptr %0, i64 27716
  %7 = load i32, ptr %6, align 4
  %.not = icmp eq i32 %7, 0
  br i1 %.not, label %.loopexit, label %.preheader18

.preheader18:                                     ; preds = %1
  %8 = getelementptr inbounds nuw i8, ptr %0, i64 640
  %9 = getelementptr inbounds nuw i8, ptr %0, i64 960
  br label %get_ref_frame_map_idx.exit.i

.preheader:                                       ; preds = %get_ref_frame_buf.exit.thread
  %10 = getelementptr inbounds nuw i8, ptr %0, i64 27728
  br label %20

get_ref_frame_map_idx.exit.i:                     ; preds = %.preheader18, %get_ref_frame_buf.exit.thread
  %indvars.iv = phi i64 [ 1, %.preheader18 ], [ %indvars.iv.next, %get_ref_frame_buf.exit.thread ]
  %11 = add nsw i64 %indvars.iv, -1
  %12 = getelementptr inbounds [8 x i32], ptr %8, i64 0, i64 %11
  %13 = load i32, ptr %12, align 4
  %.not.i = icmp eq i32 %13, -1
  br i1 %.not.i, label %get_ref_frame_buf.exit.thread, label %get_ref_frame_buf.exit

get_ref_frame_buf.exit:                           ; preds = %get_ref_frame_map_idx.exit.i
  %14 = sext i32 %13 to i64
  %15 = getelementptr inbounds [8 x ptr], ptr %9, i64 0, i64 %14
  %16 = load ptr, ptr %15, align 8
  %.not16 = icmp eq ptr %16, null
  br i1 %.not16, label %get_ref_frame_buf.exit.thread, label %17

17:                                               ; preds = %get_ref_frame_buf.exit
  %18 = getelementptr inbounds nuw i8, ptr %16, i64 1552
  %19 = load ptr, ptr %4, align 16
  tail call void @llvm.memcpy.p0.p0.i64(ptr noundef nonnull align 8 dereferenceable(21264) %18, ptr noundef nonnull align 4 dereferenceable(21264) %19, i64 21264, i1 false)
  br label %get_ref_frame_buf.exit.thread

get_ref_frame_buf.exit.thread:                    ; preds = %get_ref_frame_map_idx.exit.i, %get_ref_frame_buf.exit, %17
  %indvars.iv.next = add nuw nsw i64 %indvars.iv, 1
  %exitcond.not = icmp eq i64 %indvars.iv.next, 8
  br i1 %exitcond.not, label %.preheader, label %get_ref_frame_map_idx.exit.i, !llvm.loop !14

20:                                               ; preds = %.preheader, %20
  %indvars.iv22 = phi i64 [ 0, %.preheader ], [ %indvars.iv.next23, %20 ]
  %21 = load ptr, ptr %10, align 16
  %22 = getelementptr inbounds nuw i8, ptr %21, i64 64
  %23 = getelementptr inbounds [16 x %struct.RefCntBuffer], ptr %22, i64 0, i64 %indvars.iv22, i32 22
  %24 = load ptr, ptr %4, align 16
  tail call void @llvm.memcpy.p0.p0.i64(ptr noundef nonnull align 8 dereferenceable(21264) %23, ptr noundef nonnull align 4 dereferenceable(21264) %24, i64 21264, i1 false)
  %indvars.iv.next23 = add nuw nsw i64 %indvars.iv22, 1
  %exitcond25.not = icmp eq i64 %indvars.iv.next23, 16
  br i1 %exitcond25.not, label %.loopexit, label %20, !llvm.loop !15

.loopexit:                                        ; preds = %20, %1
  ret void
}